; Function Attrs: mustprogress nofree norecurse nosync nounwind willreturn memory(argmem: read) uwtable
define dso_local ptr @LLVMGetLastNamedMetadata(ptr noundef readonly %0) local_unnamed_addr #11 {
  %2 = getelementptr inbounds nuw i8, ptr %0, i64 72
  %3 = getelementptr inbounds nuw i8, ptr %0, i64 80
  %4 = load ptr, ptr %3, align 8
  %5 = icmp eq ptr %2, %4
  br i1 %5, label %8, label %6

6:                                                ; preds = %1
  %7 = load ptr, ptr %2, align 8
  br label %8

8:                                                ; preds = %1, %6
  %.0 = phi ptr [ %7, %6 ], [ null, %1 ]
  ret ptr %.0
}